; ModuleID = '38/1494.c'
source_filename = "38/1494.c"
target datalayout = "e-m:e-p270:32:32-p271:32:32-p272:64:64-i64:64-f80:128-n8:16:32:64-S128"
target triple = "x86_64-pc-linux-gnu"

@.str = private unnamed_addr constant [3 x i8] c"%d\00", align 1
@.str.1 = private unnamed_addr constant [4 x i8] c"%lf\00", align 1
@.str.2 = private unnamed_addr constant [6 x i8] c"%.5f\0A\00", align 1

; Function Attrs: noinline nounwind uwtable
define dso_local i32 @main() #0 {
  %1 = alloca i32, align 4
  %2 = alloca i32, align 4
  %3 = alloca i32, align 4
  %4 = alloca i32, align 4
  %5 = alloca i32, align 4
  %6 = alloca double, align 8
  %7 = alloca double, align 8
  %8 = alloca [100 x double], align 16
  %9 = alloca double*, align 8
  store i32 0, i32* %1, align 4
  %10 = call i32 (i8*, ...) @__isoc99_scanf(i8* getelementptr inbounds ([3 x i8], [3 x i8]* @.str, i64 0, i64 0), i32* %2)
  store i32 0, i32* %3, align 4
  br label %11

11:                                               ; preds = %69, %0
  %12 = load i32, i32* %3, align 4
  %13 = load i32, i32* %2, align 4
  %14 = icmp slt i32 %12, %13
  br i1 %14, label %15, label %72

15:                                               ; preds = %11
  %16 = call i32 (i8*, ...) @__isoc99_scanf(i8* getelementptr inbounds ([3 x i8], [3 x i8]* @.str, i64 0, i64 0), i32* %4)
  store double 0.000000e+00, double* %6, align 8
  store double 0.000000e+00, double* %7, align 8
  store i32 0, i32* %5, align 4
  %17 = getelementptr inbounds [100 x double], [100 x double]* %8, i64 0, i64 0
  store double* %17, double** %9, align 8
  br label %18

18:                                               ; preds = %29, %15
  %19 = load i32, i32* %5, align 4
  %20 = load i32, i32* %4, align 4
  %21 = icmp slt i32 %19, %20
  br i1 %21, label %22, label %34

22:                                               ; preds = %18
  %23 = load double*, double** %9, align 8
  %24 = call i32 (i8*, ...) @__isoc99_scanf(i8* getelementptr inbounds ([4 x i8], [4 x i8]* @.str.1, i64 0, i64 0), double* %23)
  %25 = load double*, double** %9, align 8
  %26 = load double, double* %25, align 8
  %27 = load double, double* %6, align 8
  %28 = fadd double %27, %26
  store double %28, double* %6, align 8
  br label %29

29:                                               ; preds = %22
  %30 = load i32, i32* %5, align 4
  %31 = add nsw i32 %30, 1
  store i32 %31, i32* %5, align 4
  %32 = load double*, double** %9, align 8
  %33 = getelementptr inbounds double, double* %32, i32 1
  store double* %33, double** %9, align 8
  br label %18

34:                                               ; preds = %18
  %35 = load double, double* %6, align 8
  %36 = load i32, i32* %4, align 4
  %37 = sitofp i32 %36 to double
  %38 = fdiv double %35, %37
  store double %38, double* %6, align 8
  store i32 0, i32* %5, align 4
  %39 = getelementptr inbounds [100 x double], [100 x double]* %8, i64 0, i64 0
  store double* %39, double** %9, align 8
  br label %40

40:                                               ; preds = %56, %34
  %41 = load i32, i32* %5, align 4
  %42 = load i32, i32* %4, align 4
  %43 = icmp slt i32 %41, %42
  br i1 %43, label %44, label %61

44:                                               ; preds = %40
  %45 = load double*, double** %9, align 8
  %46 = load double, double* %45, align 8
  %47 = load double, double* %6, align 8
  %48 = fsub double %46, %47
  %49 = load double*, double** %9, align 8
  %50 = load double, double* %49, align 8
  %51 = load double, double* %6, align 8
  %52 = fsub double %50, %51
  %53 = fmul double %48, %52
  %54 = load double, double* %7, align 8
  %55 = fadd double %54, %53
  store double %55, double* %7, align 8
  br label %56

56:                                               ; preds = %44
  %57 = load i32, i32* %5, align 4
  %58 = add nsw i32 %57, 1
  store i32 %58, i32* %5, align 4
  %59 = load double*, double** %9, align 8
  %60 = getelementptr inbounds double, double* %59, i32 1
  store double* %60, double** %9, align 8
  br label %40

61:                                               ; preds = %40
  %62 = load double, double* %7, align 8
  %63 = load i32, i32* %4, align 4
  %64 = sitofp i32 %63 to double
  %65 = fdiv double %62, %64
  %66 = call double @sqrt(double %65) #3
  store double %66, double* %7, align 8
  %67 = load double, double* %7, align 8
  %68 = call i32 (i8*, ...) @printf(i8* getelementptr inbounds ([6 x i8], [6 x i8]* @.str.2, i64 0, i64 0), double %67)
  br label %69

69:                                               ; preds = %61
  %70 = load i32, i32* %3, align 4
  %71 = add nsw i32 %70, 1
  store i32 %71, i32* %3, align 4
  br label %11

72:                                               ; preds = %11
  ret i32 0
}

declare dso_local i32 @__isoc99_scanf(i8*, ...) #1

; Function Attrs: nounwind
declare dso_local double @sqrt(double) #2

declare dso_local i32 @printf(i8*, ...) #1


!llvm.module.flags = !{!0}
!llvm.ident = !{!1}

!0 = !{i32 1, !"wchar_size", i32 4}
!1 = !{!"clang version 10.0.0-4ubuntu1 "}
